target datalayout = "e-m:e-p270:32:32-p271:32:32-p272:64:64-i64:64-i128:128-f80:128-n8:16:32:64-S128"
target triple = "x86_64-pc-linux-gnu"

%struct.AVFilterContext = type { ptr, ptr, ptr, ptr, ptr, i32, ptr, ptr, i32, ptr, ptr, i32, i32, ptr, ptr, ptr, ptr, i32, ptr, i32, i32 }
%struct.SpeechNormalizerContext = type { ptr, double, double, double, double, double, double, double, ptr, %struct.AVChannelLayout, i32, i32, ptr, double, i32, i32, i64, %struct.FFBufQueue, ptr, [2 x ptr] }
%struct.AVChannelLayout = type { i32, i32, %union.anon.1, ptr }
%union.anon.1 = type { i64 }
%struct.FFBufQueue = type { [1024 x ptr], i16, i16 }
%struct.AVFilterLink = type { ptr, ptr, ptr, ptr, i32, i32, i32, i32, %struct.AVRational, i32, i32, i32, %struct.AVChannelLayout, %struct.AVRational, ptr, i32, %struct.AVFilterFormatsConfig, %struct.AVFilterFormatsConfig }
%struct.AVRational = type { i32, i32 }
%struct.AVFilterFormatsConfig = type { ptr, ptr, ptr, ptr, ptr }
%struct.ChannelContext = type { i32, i32, [882000 x %struct.PeriodItem], double, double, double, i32, i32, i32 }
%struct.PeriodItem = type { i32, i32, double, double }

; Function Attrs: nounwind uwtable
define internal i32 @get_pi_samples(ptr noundef %0, i32 noundef %1, i32 noundef %2, i32 noundef %3) #1 {
  %5 = alloca i32, align 4
  %6 = alloca ptr, align 8
  %7 = alloca i32, align 4
  %8 = alloca i32, align 4
  %9 = alloca i32, align 4
  %10 = alloca i32, align 4
  %11 = alloca i32, align 4
  store ptr %0, ptr %6, align 8, !tbaa !73
  store i32 %1, ptr %7, align 4, !tbaa !25
  store i32 %2, ptr %8, align 4, !tbaa !25
  store i32 %3, ptr %9, align 4, !tbaa !25
  call void @llvm.lifetime.start.p0(i64 4, ptr %10) #9
  %12 = load ptr, ptr %6, align 8, !tbaa !73
  %13 = load i32, ptr %7, align 4, !tbaa !25
  %14 = sext i32 %13 to i64
  %15 = getelementptr inbounds %struct.PeriodItem, ptr %12, i64 %14
  %16 = getelementptr inbounds nuw %struct.PeriodItem, ptr %15, i32 0, i32 1
  %17 = load i32, ptr %16, align 4, !tbaa !82
  %18 = icmp eq i32 %17, 0
  br i1 %18, label %19, label %21

19:                                               ; preds = %4
  %20 = load i32, ptr %9, align 4, !tbaa !25
  store i32 %20, ptr %5, align 4
  store i32 1, ptr %11, align 4
  br label %53

21:                                               ; preds = %4
  %22 = load i32, ptr %9, align 4, !tbaa !25
  store i32 %22, ptr %10, align 4, !tbaa !25
  br label %23

23:                                               ; preds = %42, %21
  %24 = load i32, ptr %7, align 4, !tbaa !25
  %25 = load i32, ptr %8, align 4, !tbaa !25
  %26 = icmp ne i32 %24, %25
  br i1 %26, label %27, label %51

27:                                               ; preds = %23
  %28 = load i32, ptr %7, align 4, !tbaa !25
  %29 = add nsw i32 %28, 1
  store i32 %29, ptr %7, align 4, !tbaa !25
  %30 = load i32, ptr %7, align 4, !tbaa !25
  %31 = icmp sge i32 %30, 882000
  br i1 %31, label %32, label %33

32:                                               ; preds = %27
  store i32 0, ptr %7, align 4, !tbaa !25
  br label %33

33:                                               ; preds = %32, %27
  %34 = load ptr, ptr %6, align 8, !tbaa !73
  %35 = load i32, ptr %7, align 4, !tbaa !25
  %36 = sext i32 %35 to i64
  %37 = getelementptr inbounds %struct.PeriodItem, ptr %34, i64 %36
  %38 = getelementptr inbounds nuw %struct.PeriodItem, ptr %37, i32 0, i32 1
  %39 = load i32, ptr %38, align 4, !tbaa !82
  %40 = icmp eq i32 %39, 0
  br i1 %40, label %41, label %42

41:                                               ; preds = %33
  br label %51

42:                                               ; preds = %33
  %43 = load ptr, ptr %6, align 8, !tbaa !73
  %44 = load i32, ptr %7, align 4, !tbaa !25
  %45 = sext i32 %44 to i64
  %46 = getelementptr inbounds %struct.PeriodItem, ptr %43, i64 %45
  %47 = getelementptr inbounds nuw %struct.PeriodItem, ptr %46, i32 0, i32 0
  %48 = load i32, ptr %47, align 8, !tbaa !78
  %49 = load i32, ptr %10, align 4, !tbaa !25
  %50 = add nsw i32 %49, %48
  store i32 %50, ptr %10, align 4, !tbaa !25
  br label %23, !llvm.loop !134

51:                                               ; preds = %41, %23
  %52 = load i32, ptr %10, align 4, !tbaa !25
  store i32 %52, ptr %5, align 4
  store i32 1, ptr %11, align 4
  br label %53

53:                                               ; preds = %51, %19
  call void @llvm.lifetime.end.p0(i64 4, ptr %10) #9
  %54 = load i32, ptr %5, align 4
  ret i32 %54
}

; Function Attrs: nounwind uwtable
define internal i32 @available_samples(ptr noundef %0) #1 {
  %2 = alloca ptr, align 8
  %3 = alloca ptr, align 8
  %4 = alloca ptr, align 8
  %5 = alloca i32, align 4
  %6 = alloca i32, align 4
  %7 = alloca ptr, align 8
  store ptr %0, ptr %2, align 8, !tbaa !4
  call void @llvm.lifetime.start.p0(i64 8, ptr %3) #9
  %8 = load ptr, ptr %2, align 8, !tbaa !4
  %9 = getelementptr inbounds nuw %struct.AVFilterContext, ptr %8, i32 0, i32 9
  %10 = load ptr, ptr %9, align 8, !tbaa !9
  store ptr %10, ptr %3, align 8, !tbaa !22
  call void @llvm.lifetime.start.p0(i64 8, ptr %4) #9
  %11 = load ptr, ptr %2, align 8, !tbaa !4
  %12 = getelementptr inbounds nuw %struct.AVFilterContext, ptr %11, i32 0, i32 4
  %13 = load ptr, ptr %12, align 8, !tbaa !35
  %14 = getelementptr inbounds ptr, ptr %13, i64 0
  %15 = load ptr, ptr %14, align 8, !tbaa !36
  store ptr %15, ptr %4, align 8, !tbaa !36
  call void @llvm.lifetime.start.p0(i64 4, ptr %5) #9
  %16 = load ptr, ptr %3, align 8, !tbaa !22
  %17 = getelementptr inbounds nuw %struct.SpeechNormalizerContext, ptr %16, i32 0, i32 12
  %18 = load ptr, ptr %17, align 8, !tbaa !60
  %19 = getelementptr inbounds %struct.ChannelContext, ptr %18, i64 0
  %20 = getelementptr inbounds nuw %struct.ChannelContext, ptr %19, i32 0, i32 2
  %21 = getelementptr inbounds [882000 x %struct.PeriodItem], ptr %20, i64 0, i64 0
  %22 = load ptr, ptr %3, align 8, !tbaa !22
  %23 = getelementptr inbounds nuw %struct.SpeechNormalizerContext, ptr %22, i32 0, i32 12
  %24 = load ptr, ptr %23, align 8, !tbaa !60
  %25 = getelementptr inbounds %struct.ChannelContext, ptr %24, i64 0
  %26 = getelementptr inbounds nuw %struct.ChannelContext, ptr %25, i32 0, i32 6
  %27 = load i32, ptr %26, align 8, !tbaa !111
  %28 = load ptr, ptr %3, align 8, !tbaa !22
  %29 = getelementptr inbounds nuw %struct.SpeechNormalizerContext, ptr %28, i32 0, i32 12
  %30 = load ptr, ptr %29, align 8, !tbaa !60
  %31 = getelementptr inbounds %struct.ChannelContext, ptr %30, i64 0
  %32 = getelementptr inbounds nuw %struct.ChannelContext, ptr %31, i32 0, i32 7
  %33 = load i32, ptr %32, align 4, !tbaa !75
  %34 = load ptr, ptr %3, align 8, !tbaa !22
  %35 = getelementptr inbounds nuw %struct.SpeechNormalizerContext, ptr %34, i32 0, i32 12
  %36 = load ptr, ptr %35, align 8, !tbaa !60
  %37 = getelementptr inbounds %struct.ChannelContext, ptr %36, i64 0
  %38 = getelementptr inbounds nuw %struct.ChannelContext, ptr %37, i32 0, i32 8
  %39 = load i32, ptr %38, align 8, !tbaa !87
  %40 = call i32 @get_pi_samples(ptr noundef %21, i32 noundef %27, i32 noundef %33, i32 noundef %39)
  store i32 %40, ptr %5, align 4, !tbaa !25
  call void @llvm.lifetime.start.p0(i64 4, ptr %6) #9
  store i32 1, ptr %6, align 4, !tbaa !25
  br label %41

41:                                               ; preds = %94, %1
  %42 = load i32, ptr %6, align 4, !tbaa !25
  %43 = load ptr, ptr %4, align 8, !tbaa !36
  %44 = getelementptr inbounds nuw %struct.AVFilterLink, ptr %43, i32 0, i32 12
  %45 = getelementptr inbounds nuw %struct.AVChannelLayout, ptr %44, i32 0, i32 1
  %46 = load i32, ptr %45, align 4, !tbaa !59
  %47 = icmp slt i32 %42, %46
  br i1 %47, label %48, label %51

48:                                               ; preds = %41
  %49 = load i32, ptr %5, align 4, !tbaa !25
  %50 = icmp sgt i32 %49, 0
  br label %51

51:                                               ; preds = %48, %41
  %52 = phi i1 [ false, %41 ], [ %50, %48 ]
  br i1 %52, label %54, label %53

53:                                               ; preds = %51
  call void @llvm.lifetime.end.p0(i64 4, ptr %6) #9
  br label %97

54:                                               ; preds = %51
  call void @llvm.lifetime.start.p0(i64 8, ptr %7) #9
  %55 = load ptr, ptr %3, align 8, !tbaa !22
  %56 = getelementptr inbounds nuw %struct.SpeechNormalizerContext, ptr %55, i32 0, i32 12
  %57 = load ptr, ptr %56, align 8, !tbaa !60
  %58 = load i32, ptr %6, align 4, !tbaa !25
  %59 = sext i32 %58 to i64
  %60 = getelementptr inbounds %struct.ChannelContext, ptr %57, i64 %59
  store ptr %60, ptr %7, align 8, !tbaa !61
  %61 = load i32, ptr %5, align 4, !tbaa !25
  %62 = load ptr, ptr %7, align 8, !tbaa !61
  %63 = getelementptr inbounds nuw %struct.ChannelContext, ptr %62, i32 0, i32 2
  %64 = getelementptr inbounds [882000 x %struct.PeriodItem], ptr %63, i64 0, i64 0
  %65 = load ptr, ptr %7, align 8, !tbaa !61
  %66 = getelementptr inbounds nuw %struct.ChannelContext, ptr %65, i32 0, i32 6
  %67 = load i32, ptr %66, align 8, !tbaa !111
  %68 = load ptr, ptr %7, align 8, !tbaa !61
  %69 = getelementptr inbounds nuw %struct.ChannelContext, ptr %68, i32 0, i32 7
  %70 = load i32, ptr %69, align 4, !tbaa !75
  %71 = load ptr, ptr %7, align 8, !tbaa !61
  %72 = getelementptr inbounds nuw %struct.ChannelContext, ptr %71, i32 0, i32 8
  %73 = load i32, ptr %72, align 8, !tbaa !87
  %74 = call i32 @get_pi_samples(ptr noundef %64, i32 noundef %67, i32 noundef %70, i32 noundef %73)
  %75 = icmp sgt i32 %61, %74
  br i1 %75, label %76, label %90

76:                                               ; preds = %54
  %77 = load ptr, ptr %7, align 8, !tbaa !61
  %78 = getelementptr inbounds nuw %struct.ChannelContext, ptr %77, i32 0, i32 2
  %79 = getelementptr inbounds [882000 x %struct.PeriodItem], ptr %78, i64 0, i64 0
  %80 = load ptr, ptr %7, align 8, !tbaa !61
  %81 = getelementptr inbounds nuw %struct.ChannelContext, ptr %80, i32 0, i32 6
  %82 = load i32, ptr %81, align 8, !tbaa !111
  %83 = load ptr, ptr %7, align 8, !tbaa !61
  %84 = getelementptr inbounds nuw %struct.ChannelContext, ptr %83, i32 0, i32 7
  %85 = load i32, ptr %84, align 4, !tbaa !75
  %86 = load ptr, ptr %7, align 8, !tbaa !61
  %87 = getelementptr inbounds nuw %struct.ChannelContext, ptr %86, i32 0, i32 8
  %88 = load i32, ptr %87, align 8, !tbaa !87
  %89 = call i32 @get_pi_samples(ptr noundef %79, i32 noundef %82, i32 noundef %85, i32 noundef %88)
  br label %92

90:                                               ; preds = %54
  %91 = load i32, ptr %5, align 4, !tbaa !25
  br label %92

92:                                               ; preds = %90, %76
  %93 = phi i32 [ %89, %76 ], [ %91, %90 ]
  store i32 %93, ptr %5, align 4, !tbaa !25
  call void @llvm.lifetime.end.p0(i64 8, ptr %7) #9
  br label %94

94:                                               ; preds = %92
  %95 = load i32, ptr %6, align 4, !tbaa !25
  %96 = add nsw i32 %95, 1
  store i32 %96, ptr %6, align 4, !tbaa !25
  br label %41, !llvm.loop !131

97:                                               ; preds = %53
  %98 = load i32, ptr %5, align 4, !tbaa !25
  call void @llvm.lifetime.end.p0(i64 4, ptr %5) #9
  call void @llvm.lifetime.end.p0(i64 8, ptr %4) #9
  call void @llvm.lifetime.end.p0(i64 8, ptr %3) #9
  ret i32 %98
}