; Function Attrs: nofree norecurse nosync nounwind memory(argmem: read) uwtable
define internal fastcc i32 @available_samples(ptr readonly captures(none) %.32.val.0.val, ptr readonly captures(none) %.72.val.104.val) unnamed_addr #8 {
  %1 = getelementptr inbounds nuw i8, ptr %.72.val.104.val, i64 8
  %2 = getelementptr inbounds nuw i8, ptr %.72.val.104.val, i64 21168032
  %3 = load i32, ptr %2, align 8, !tbaa !85
  %4 = getelementptr inbounds nuw i8, ptr %.72.val.104.val, i64 21168036
  %5 = load i32, ptr %4, align 4, !tbaa !73
  %6 = getelementptr inbounds nuw i8, ptr %.72.val.104.val, i64 21168040
  %7 = load i32, ptr %6, align 8, !tbaa !84
  %8 = sext i32 %3 to i64
  %.idx = mul nsw i64 %8, 24
  %9 = getelementptr i8, ptr %1, i64 %.idx
  %10 = getelementptr i8, ptr %9, i64 4
  %11 = load i32, ptr %10, align 4, !tbaa !80
  %12 = icmp eq i32 %11, 0
  %.not16.i = icmp eq i32 %3, %5
  %or.cond.i = or i1 %.not16.i, %12
  br i1 %or.cond.i, label %get_pi_samples.exit, label %.lr.ph.i

.lr.ph.i:                                         ; preds = %0, %20
  %.018.i = phi i32 [ %22, %20 ], [ %7, %0 ]
  %.01517.i = phi i32 [ %spec.store.select.i, %20 ], [ %3, %0 ]
  %13 = add nsw i32 %.01517.i, 1
  %14 = icmp sgt i32 %.01517.i, 881998
  %spec.store.select.i = select i1 %14, i32 0, i32 %13
  %15 = sext i32 %spec.store.select.i to i64
  %16 = getelementptr inbounds %struct.PeriodItem, ptr %1, i64 %15
  %17 = getelementptr inbounds nuw i8, ptr %16, i64 4
  %18 = load i32, ptr %17, align 4, !tbaa !80
  %19 = icmp eq i32 %18, 0
  br i1 %19, label %get_pi_samples.exit, label %20

20:                                               ; preds = %.lr.ph.i
  %21 = load i32, ptr %16, align 8, !tbaa !76
  %22 = add nsw i32 %21, %.018.i
  %.not.i = icmp eq i32 %spec.store.select.i, %5
  br i1 %.not.i, label %get_pi_samples.exit, label %.lr.ph.i, !llvm.loop !118

get_pi_samples.exit:                              ; preds = %.lr.ph.i, %20, %0
  %.014.i = phi i32 [ %7, %0 ], [ %22, %20 ], [ %.018.i, %.lr.ph.i ]
  %23 = getelementptr inbounds nuw i8, ptr %.32.val.0.val, i64 76
  %24 = load i32, ptr %23, align 4, !tbaa !59
  %25 = icmp sgt i32 %24, 1
  %26 = icmp sgt i32 %.014.i, 0
  %27 = select i1 %25, i1 %26, i1 false
  br i1 %27, label %.lr.ph.preheader, label %._crit_edge

.lr.ph.preheader:                                 ; preds = %get_pi_samples.exit
  %28 = zext nneg i32 %24 to i64
  br label %.lr.ph

._crit_edge:                                      ; preds = %get_pi_samples.exit40, %get_pi_samples.exit
  %.0.lcssa = phi i32 [ %.014.i, %get_pi_samples.exit ], [ %62, %get_pi_samples.exit40 ]
  ret i32 %.0.lcssa

.lr.ph:                                           ; preds = %.lr.ph.preheader, %get_pi_samples.exit40
  %indvars.iv = phi i64 [ 1, %.lr.ph.preheader ], [ %indvars.iv.next, %get_pi_samples.exit40 ]
  %.04 = phi i32 [ %.014.i, %.lr.ph.preheader ], [ %62, %get_pi_samples.exit40 ]
  %29 = getelementptr inbounds nuw %struct.ChannelContext, ptr %.72.val.104.val, i64 %indvars.iv
  %30 = getelementptr inbounds nuw i8, ptr %29, i64 8
  %31 = getelementptr inbounds nuw i8, ptr %29, i64 21168032
  %32 = load i32, ptr %31, align 8, !tbaa !85
  %33 = getelementptr inbounds nuw i8, ptr %29, i64 21168036
  %34 = load i32, ptr %33, align 4, !tbaa !73
  %35 = getelementptr inbounds nuw i8, ptr %29, i64 21168040
  %36 = load i32, ptr %35, align 8, !tbaa !84
  %37 = sext i32 %32 to i64
  %.idx2 = mul nsw i64 %37, 24
  %38 = getelementptr i8, ptr %30, i64 %.idx2
  %39 = getelementptr i8, ptr %38, i64 4
  %40 = load i32, ptr %39, align 4, !tbaa !80
  %41 = icmp eq i32 %40, 0
  %.not16.i23 = icmp eq i32 %32, %34
  %or.cond.i24 = or i1 %.not16.i23, %41
  br i1 %or.cond.i24, label %get_pi_samples.exit31.thread, label %.lr.ph.i25

.lr.ph.i25:                                       ; preds = %.lr.ph, %49
  %.018.i26 = phi i32 [ %51, %49 ], [ %36, %.lr.ph ]
  %.01517.i27 = phi i32 [ %spec.store.select.i28, %49 ], [ %32, %.lr.ph ]
  %42 = add nsw i32 %.01517.i27, 1
  %43 = icmp sgt i32 %.01517.i27, 881998
  %spec.store.select.i28 = select i1 %43, i32 0, i32 %42
  %44 = sext i32 %spec.store.select.i28 to i64
  %45 = getelementptr inbounds %struct.PeriodItem, ptr %30, i64 %44
  %46 = getelementptr inbounds nuw i8, ptr %45, i64 4
  %47 = load i32, ptr %46, align 4, !tbaa !80
  %48 = icmp eq i32 %47, 0
  br i1 %48, label %get_pi_samples.exit31, label %49

49:                                               ; preds = %.lr.ph.i25
  %50 = load i32, ptr %45, align 8, !tbaa !76
  %51 = add nsw i32 %50, %.018.i26
  %.not.i29 = icmp eq i32 %spec.store.select.i28, %34
  br i1 %.not.i29, label %get_pi_samples.exit31, label %.lr.ph.i25, !llvm.loop !118

get_pi_samples.exit31:                            ; preds = %.lr.ph.i25, %49
  %.014.i30 = phi i32 [ %.018.i26, %.lr.ph.i25 ], [ %51, %49 ]
  %.not = icmp sgt i32 %.04, %.014.i30
  br i1 %.not, label %.lr.ph.i34, label %get_pi_samples.exit40

get_pi_samples.exit31.thread:                     ; preds = %.lr.ph
  %spec.select = tail call i32 @llvm.smin.i32(i32 %.04, i32 %36)
  br label %get_pi_samples.exit40

.lr.ph.i34:                                       ; preds = %get_pi_samples.exit31, %59
  %.018.i35 = phi i32 [ %61, %59 ], [ %36, %get_pi_samples.exit31 ]
  %.01517.i36 = phi i32 [ %spec.store.select.i37, %59 ], [ %32, %get_pi_samples.exit31 ]
  %52 = add nsw i32 %.01517.i36, 1
  %53 = icmp sgt i32 %.01517.i36, 881998
  %spec.store.select.i37 = select i1 %53, i32 0, i32 %52
  %54 = sext i32 %spec.store.select.i37 to i64
  %55 = getelementptr inbounds %struct.PeriodItem, ptr %30, i64 %54
  %56 = getelementptr inbounds nuw i8, ptr %55, i64 4
  %57 = load i32, ptr %56, align 4, !tbaa !80
  %58 = icmp eq i32 %57, 0
  br i1 %58, label %get_pi_samples.exit40, label %59

59:                                               ; preds = %.lr.ph.i34
  %60 = load i32, ptr %55, align 8, !tbaa !76
  %61 = add nsw i32 %60, %.018.i35
  %.not.i38 = icmp eq i32 %spec.store.select.i37, %34
  br i1 %.not.i38, label %get_pi_samples.exit40, label %.lr.ph.i34, !llvm.loop !118

get_pi_samples.exit40:                            ; preds = %59, %.lr.ph.i34, %get_pi_samples.exit31.thread, %get_pi_samples.exit31
  %62 = phi i32 [ %.04, %get_pi_samples.exit31 ], [ %spec.select, %get_pi_samples.exit31.thread ], [ %61, %59 ], [ %.018.i35, %.lr.ph.i34 ]
  %indvars.iv.next = add nuw nsw i64 %indvars.iv, 1
  %63 = icmp samesign ult i64 %indvars.iv.next, %28
  %64 = icmp sgt i32 %62, 0
  %65 = select i1 %63, i1 %64, i1 false
  br i1 %65, label %.lr.ph, label %._crit_edge, !llvm.loop !119
}